; Function Attrs: nounwind sspstrong uwtable
define internal range(i64 1, 0) i64 @strscan_size(i64 noundef %0) #0 {
  %2 = tail call ptr @rb_check_typeddata(i64 noundef %0, ptr noundef nonnull @strscanner_type) #12
  %3 = getelementptr inbounds nuw i8, ptr %2, i64 8
  %4 = load i64, ptr %3, align 8, !tbaa !23
  %5 = icmp eq i64 %4, 4
  br i1 %5, label %6, label %8

6:                                                ; preds = %1
  %7 = load i64, ptr @rb_eArgError, align 8, !tbaa !10
  tail call void (i64, ptr, ...) @rb_raise(i64 noundef %7, ptr noundef nonnull @.str.66) #14
  unreachable

8:                                                ; preds = %1
  %9 = load i64, ptr %2, align 8, !tbaa !18
  %10 = and i64 %9, 1
  %.not = icmp eq i64 %10, 0
  br i1 %.not, label %17, label %11

11:                                               ; preds = %8
  %12 = getelementptr inbounds nuw i8, ptr %2, i64 36
  %13 = load i32, ptr %12, align 4, !tbaa !82
  %14 = sext i32 %13 to i64
  %15 = shl nsw i64 %14, 1
  %16 = or disjoint i64 %15, 1
  br label %17

17:                                               ; preds = %8, %11
  %.0 = phi i64 [ %16, %11 ], [ 4, %8 ]
  ret i64 %.0
}